Certificate:
    Data:
        Version: 3 (0x2)
        Serial Number: 1 (0x1)
    Signature Algorithm: sha256WithRSAEncryption
        Issuer: CN=devcert
        Validity
            Not Before: Apr 25 19:00:52 2020 GMT
            Not After : Jul 29 19:00:52 2022 GMT
        Subject: CN=localhost
        Subject Public Key Info:
            Public Key Algorithm: rsaEncryption
                Public-Key: (2048 bit)
                Modulus:
                    00:b7:8b:b1:8c:0c:61:50:39:d2:1c:f9:10:de:cd:
                    30:34:f2:45:8d:49:ed:7c:8f:f6:0e:04:4f:70:84:
                    f9:96:44:08:b4:9e:88:36:08:96:03:f0:85:e5:e2:
                    a4:aa:27:40:9b:a2:e6:6e:b4:ac:0d:7c:13:09:3a:
                    b3:2a:88:a0:97:59:e5:c5:e6:be:7f:58:ec:b0:26:
                    8c:98:02:2e:89:e9:d8:84:42:33:38:4b:d1:d8:74:
                    14:3e:57:7d:c3:de:11:52:f2:3b:03:b1:f9:5a:97:
                    fe:23:58:00:6f:39:46:d0:4b:0d:a7:6f:6b:51:78:
                    b4:82:07:89:0d:4a:0d:93:38:3a:d9:cb:17:b7:be:
                    a9:f9:6e:55:42:89:06:5b:98:8b:76:27:85:1b:ed:
                    a3:7e:1c:3e:92:e2:d8:59:4c:26:31:3b:0d:e3:6c:
                    57:6e:7b:39:c8:3b:e6:cb:93:14:e4:15:09:f5:02:
                    fa:6c:56:ff:a4:f4:d8:50:87:1b:2b:01:a3:21:a4:
                    3b:a5:04:3f:df:42:36:e2:92:0e:cf:4c:b6:19:1f:
                    ca:fc:ae:0e:71:5e:d2:d1:d3:a4:8b:f9:c3:01:d5:
                    23:0f:b7:e0:eb:0c:79:17:7d:36:78:00:9c:7b:8c:
                    e8:8b:33:9a:63:8e:83:bb:00:24:b0:de:af:6e:78:
                    27:e5
                Exponent: 65537 (0x10001)
        X509v3 extensions:
            X509v3 Basic Constraints: critical
                CA:FALSE
            X509v3 Subject Key Identifier: 
                13:C3:16:B3:BD:0A:00:DA:B7:B7:77:F1:7A:03:F2:BF:63:40:F3:2C
            X509v3 Authority Key Identifier: 
                keyid:49:47:7F:85:2F:EB:F6:EC:12:C5:9B:72:A8:89:8A:64:AE:B1:49:0A
                DirName:/CN=devcert
                serial:9C:00:29:6F:12:FA:CD:3D

            X509v3 Key Usage: critical
                Digital Signature, Key Encipherment
            X509v3 Extended Key Usage: 
                TLS Web Server Authentication
            X509v3 Subject Alternative Name: 
                DNS:localhost, DNS:*.localhost
    Signature Algorithm: sha256WithRSAEncryption
         a5:44:43:ba:be:ad:a0:01:c8:62:85:89:9d:12:26:db:0f:28:
         3c:6a:c8:2e:96:85:e2:ad:e7:56:ee:a7:19:05:81:71:ea:11:
         ad:5d:58:88:e4:e2:d8:b9:a7:9f:f2:14:d7:49:b5:ca:db:e3:
         56:0f:e9:04:1a:d7:e8:74:96:2d:72:6e:75:d0:ad:c5:62:d2:
         4f:b8:78:e3:50:08:26:a8:47:33:1a:d7:7b:fc:49:96:06:82:
         8e:4e:ed:06:90:d5:35:87:01:c0:56:be:1e:82:fe:6a:15:34:
         e6:ac:e2:d6:95:fa:aa:e8:ed:a1:84:b3:ad:5d:63:da:de:4b:
         b5:4f:af:1d:fd:fe:53:72:1f:71:a0:9d:5c:39:d9:82:ef:43:
         2e:cd:fe:67:f3:67:6f:7e:a5:ef:c4:f3:e2:f2:8d:0a:68:4f:
         4d:10:e4:00:3d:b0:b3:71:bd:d0:d6:d5:a1:1a:b3:02:2e:ad:
         16:27:8a:4a:c5:dc:13:37:c5:62:d4:6b:b6:c6:7c:67:25:e0:
         de:9e:1f:0c:74:e7:b4:40:d9:ff:a7:9f:cf:c7:7d:44:74:d3:
         1f:29:ab:8c:44:2f:1b:d5:52:12:62:9f:03:ff:26:66:bb:98:
         a8:08:41:ce:71:06:b0:5a:08:98:26:2d:5c:86:00:29:c2:cb:
         47:7c:3c:47
-----BEGIN CERTIFICATE-----
MIIDXjCCAkagAwIBAgIBATANBgkqhkiG9w0BAQsFADASMRAwDgYDVQQDDAdkZXZj
ZXJ0MB4XDTIwMDQyNTE5MDA1MloXDTIyMDcyOTE5MDA1MlowFDESMBAGA1UEAwwJ
bG9jYWxob3N0MIIBIjANBgkqhkiG9w0BAQEFAAOCAQ8AMIIBCgKCAQEAt4uxjAxh
UDnSHPkQ3s0wNPJFjUntfI/2DgRPcIT5lkQItJ6INgiWA/CF5eKkqidAm6LmbrSs
DXwTCTqzKoigl1nlxea+f1jssCaMmAIuienYhEIzOEvR2HQUPld9w94RUvI7A7H5
Wpf+I1gAbzlG0EsNp29rUXi0ggeJDUoNkzg62csXt76p+W5VQokGW5iLdieFG+2j
fhw+kuLYWUwmMTsN42xXbns5yDvmy5MU5BUJ9QL6bFb/pPTYUIcbKwGjIaQ7pQQ/
30I24pIOz0y2GR/K/K4OcV7S0dOki/nDAdUjD7fg6wx5F302eACce4zoizOaY46D
uwAksN6vbngn5QIDAQABo4G8MIG5MAwGA1UdEwEB/wQCMAAwHQYDVR0OBBYEFBPD
FrO9CgDat7d38XoD8r9jQPMsMEIGA1UdIwQ7MDmAFElHf4Uv6/bsEsWbcqiJimSu
sUkKoRakFDASMRAwDgYDVQQDDAdkZXZjZXJ0ggkAnAApbxL6zT0wDgYDVR0PAQH/
BAQDAgWgMBMGA1UdJQQMMAoGCCsGAQUFBwMBMCEGA1UdEQQaMBiCCWxvY2FsaG9z
dIILKi5sb2NhbGhvc3QwDQYJKoZIhvcNAQELBQADggEBAKVEQ7q+raAByGKFiZ0S
JtsPKDxqyC6WheKt51bupxkFgXHqEa1dWIjk4ti5p5/yFNdJtcrb41YP6QQa1+h0
li1ybnXQrcVi0k+4eONQCCaoRzMa13v8SZYGgo5O7QaQ1TWHAcBWvh6C/moVNOas
4taV+qro7aGEs61dY9reS7VPrx39/lNyH3GgnVw52YLvQy7N/mfzZ29+pe/E8+Ly
jQpoT00Q5AA9sLNxvdDW1aEaswIurRYnikrF3BM3xWLUa7bGfGcl4N6eHwx057RA
2f+nn8/HfUR00x8pq4xELxvVUhJinwP/Jma7mKgIQc5xBrBaCJgmLVyGACnCy0d8
PEc=
-----END CERTIFICATE-----
